; ModuleID = '61/219.c'
source_filename = "61/219.c"
target datalayout = "e-m:e-p270:32:32-p271:32:32-p272:64:64-i64:64-f80:128-n8:16:32:64-S128"
target triple = "x86_64-pc-linux-gnu"

@.str = private unnamed_addr constant [3 x i8] c"%d\00", align 1
@.str.1 = private unnamed_addr constant [3 x i8] c"1\0A\00", align 1
@.str.2 = private unnamed_addr constant [4 x i8] c"%d\0A\00", align 1

; Function Attrs: noinline nounwind uwtable
define dso_local i32 @main() #0 {
  %1 = alloca i32, align 4
  %2 = alloca i32, align 4
  %3 = alloca i32, align 4
  %4 = alloca i32, align 4
  %5 = alloca i32, align 4
  %6 = alloca [30 x i32], align 16
  store i32 0, i32* %1, align 4
  %7 = getelementptr inbounds [30 x i32], [30 x i32]* %6, i64 0, i64 0
  store i32 1, i32* %7, align 16
  %8 = getelementptr inbounds [30 x i32], [30 x i32]* %6, i64 0, i64 1
  store i32 1, i32* %8, align 4
  %9 = call i32 (i8*, ...) @__isoc99_scanf(i8* getelementptr inbounds ([3 x i8], [3 x i8]* @.str, i64 0, i64 0), i32* %5)
  store i32 0, i32* %3, align 4
  br label %10

10:                                               ; preds = %62, %0
  %11 = load i32, i32* %3, align 4
  %12 = load i32, i32* %5, align 4
  %13 = icmp slt i32 %11, %12
  br i1 %13, label %14, label %65

14:                                               ; preds = %10
  store i32 2, i32* %4, align 4
  br label %15

15:                                               ; preds = %22, %14
  %16 = load i32, i32* %4, align 4
  %17 = icmp slt i32 %16, 30
  br i1 %17, label %18, label %25

18:                                               ; preds = %15
  %19 = load i32, i32* %4, align 4
  %20 = sext i32 %19 to i64
  %21 = getelementptr inbounds [30 x i32], [30 x i32]* %6, i64 0, i64 %20
  store i32 0, i32* %21, align 4
  br label %22

22:                                               ; preds = %18
  %23 = load i32, i32* %4, align 4
  %24 = add nsw i32 %23, 1
  store i32 %24, i32* %4, align 4
  br label %15

25:                                               ; preds = %15
  %26 = call i32 (i8*, ...) @__isoc99_scanf(i8* getelementptr inbounds ([3 x i8], [3 x i8]* @.str, i64 0, i64 0), i32* %2)
  %27 = load i32, i32* %2, align 4
  %28 = icmp sle i32 %27, 2
  br i1 %28, label %29, label %31

29:                                               ; preds = %25
  %30 = call i32 (i8*, ...) @printf(i8* getelementptr inbounds ([3 x i8], [3 x i8]* @.str.1, i64 0, i64 0))
  br label %61

31:                                               ; preds = %25
  store i32 2, i32* %4, align 4
  br label %32

32:                                               ; preds = %51, %31
  %33 = load i32, i32* %4, align 4
  %34 = load i32, i32* %2, align 4
  %35 = icmp slt i32 %33, %34
  br i1 %35, label %36, label %54

36:                                               ; preds = %32
  %37 = load i32, i32* %4, align 4
  %38 = sub nsw i32 %37, 1
  %39 = sext i32 %38 to i64
  %40 = getelementptr inbounds [30 x i32], [30 x i32]* %6, i64 0, i64 %39
  %41 = load i32, i32* %40, align 4
  %42 = load i32, i32* %4, align 4
  %43 = sub nsw i32 %42, 2
  %44 = sext i32 %43 to i64
  %45 = getelementptr inbounds [30 x i32], [30 x i32]* %6, i64 0, i64 %44
  %46 = load i32, i32* %45, align 4
  %47 = add nsw i32 %41, %46
  %48 = load i32, i32* %4, align 4
  %49 = sext i32 %48 to i64
  %50 = getelementptr inbounds [30 x i32], [30 x i32]* %6, i64 0, i64 %49
  store i32 %47, i32* %50, align 4
  br label %51

51:                                               ; preds = %36
  %52 = load i32, i32* %4, align 4
  %53 = add nsw i32 %52, 1
  store i32 %53, i32* %4, align 4
  br label %32

54:                                               ; preds = %32
  %55 = load i32, i32* %2, align 4
  %56 = sub nsw i32 %55, 1
  %57 = sext i32 %56 to i64
  %58 = getelementptr inbounds [30 x i32], [30 x i32]* %6, i64 0, i64 %57
  %59 = load i32, i32* %58, align 4
  %60 = call i32 (i8*, ...) @printf(i8* getelementptr inbounds ([4 x i8], [4 x i8]* @.str.2, i64 0, i64 0), i32 %59)
  br label %61

61:                                               ; preds = %54, %29
  br label %62

62:                                               ; preds = %61
  %63 = load i32, i32* %3, align 4
  %64 = add nsw i32 %63, 1
  store i32 %64, i32* %3, align 4
  br label %10

65:                                               ; preds = %10
  %66 = load i32, i32* %1, align 4
  ret i32 %66
}

declare dso_local i32 @__isoc99_scanf(i8*, ...) #1

declare dso_local i32 @printf(i8*, ...) #1


!llvm.module.flags = !{!0}
!llvm.ident = !{!1}

!0 = !{i32 1, !"wchar_size", i32 4}
!1 = !{!"clang version 10.0.0-4ubuntu1 "}
